target datalayout = "e-m:e-p270:32:32-p271:32:32-p272:64:64-i64:64-i128:128-f80:128-n8:16:32:64-S128"
target triple = "x86_64-pc-linux-gnu"

%"class.base::internal::WeakReference::Flag" = type <{ %"class.base::RefCountedThreadSafe", i8, i8, [2 x i8] }>
%"class.base::RefCountedThreadSafe" = type { %"class.base::subtle::RefCountedThreadSafeBase" }
%"class.base::subtle::RefCountedThreadSafeBase" = type { i32 }
%"class.base::internal::WeakReferenceOwner" = type { %class.scoped_refptr.0 }
%class.scoped_refptr.0 = type { ptr }

@_ZN4base8internal13WeakReference4FlagD1Ev = unnamed_addr alias void (ptr), ptr @_ZN4base8internal13WeakReference4FlagD2Ev

; Function Attrs: mustprogress nounwind uwtable
define linkonce_odr void @_ZN4base20RefCountedThreadSafeINS_8internal13WeakReference4FlagENS_33DefaultRefCountedThreadSafeTraitsIS3_EEE14DeleteInternalEPKS3_(ptr noundef %0) #1 comdat align 2 {
  %2 = alloca ptr, align 8
  store ptr %0, ptr %2, align 8, !tbaa !3
  %3 = load ptr, ptr %2, align 8, !tbaa !3
  %4 = icmp eq ptr %3, null
  br i1 %4, label %6, label %5

5:                                                ; preds = %1
  call void @_ZN4base8internal13WeakReference4FlagD1Ev(ptr noundef nonnull align 4 dereferenceable(6) %3) #8
  call void @_ZdlPv(ptr noundef %3) #11
  br label %6

6:                                                ; preds = %5, %1
  ret void
}

; Function Attrs: mustprogress uwtable
define linkonce_odr void @_ZN4base33DefaultRefCountedThreadSafeTraitsINS_8internal13WeakReference4FlagEE8DestructEPKS3_(ptr noundef %0) #0 comdat align 2 {
  %2 = alloca ptr, align 8
  store ptr %0, ptr %2, align 8, !tbaa !3
  %3 = load ptr, ptr %2, align 8, !tbaa !3
  call void @_ZN4base20RefCountedThreadSafeINS_8internal13WeakReference4FlagENS_33DefaultRefCountedThreadSafeTraitsIS3_EEE14DeleteInternalEPKS3_(ptr noundef %3)
  ret void
}

; Function Attrs: mustprogress uwtable
define linkonce_odr void @_ZNK4base20RefCountedThreadSafeINS_8internal13WeakReference4FlagENS_33DefaultRefCountedThreadSafeTraitsIS3_EEE7ReleaseEv(ptr noundef nonnull align 4 dereferenceable(4) %0) #0 comdat align 2 {
  %2 = alloca ptr, align 8
  store ptr %0, ptr %2, align 8, !tbaa !15
  %3 = load ptr, ptr %2, align 8
  %4 = call noundef zeroext i1 @_ZNK4base6subtle24RefCountedThreadSafeBase7ReleaseEv(ptr noundef nonnull align 4 dereferenceable(4) %3)
  br i1 %4, label %5, label %6

5:                                                ; preds = %1
  call void @_ZN4base33DefaultRefCountedThreadSafeTraitsINS_8internal13WeakReference4FlagEE8DestructEPKS3_(ptr noundef %3)
  br label %6

6:                                                ; preds = %5, %1
  ret void
}

; Function Attrs: mustprogress uwtable
define linkonce_odr void @_ZNK4base20RefCountedThreadSafeINS_8internal13WeakReference4FlagENS_33DefaultRefCountedThreadSafeTraitsIS3_EEE6AddRefEv(ptr noundef nonnull align 4 dereferenceable(4) %0) #0 comdat align 2 {
  %2 = alloca ptr, align 8
  store ptr %0, ptr %2, align 8, !tbaa !15
  %3 = load ptr, ptr %2, align 8
  call void @_ZNK4base6subtle24RefCountedThreadSafeBase6AddRefEv(ptr noundef nonnull align 4 dereferenceable(4) %3)
  ret void
}

; Function Attrs: mustprogress uwtable
define linkonce_odr void @_ZN13scoped_refptrIN4base8internal13WeakReference4FlagEE7ReleaseEPS3_(ptr noundef %0) #0 comdat align 2 {
  %2 = alloca ptr, align 8
  store ptr %0, ptr %2, align 8, !tbaa !3
  %3 = load ptr, ptr %2, align 8, !tbaa !3
  call void @_ZNK4base20RefCountedThreadSafeINS_8internal13WeakReference4FlagENS_33DefaultRefCountedThreadSafeTraitsIS3_EEE7ReleaseEv(ptr noundef nonnull align 4 dereferenceable(4) %3)
  ret void
}

; Function Attrs: mustprogress uwtable
define linkonce_odr void @_ZN13scoped_refptrIN4base8internal13WeakReference4FlagEE6AddRefEPS3_(ptr noundef %0) #0 comdat align 2 {
  %2 = alloca ptr, align 8
  store ptr %0, ptr %2, align 8, !tbaa !3
  %3 = load ptr, ptr %2, align 8, !tbaa !3
  call void @_ZNK4base20RefCountedThreadSafeINS_8internal13WeakReference4FlagENS_33DefaultRefCountedThreadSafeTraitsIS3_EEE6AddRefEv(ptr noundef nonnull align 4 dereferenceable(4) %3)
  ret void
}

; Function Attrs: mustprogress uwtable
define linkonce_odr noundef nonnull align 8 dereferenceable(8) ptr @_ZN13scoped_refptrIN4base8internal13WeakReference4FlagEEaSEPS3_(ptr noundef nonnull align 8 dereferenceable(8) %0, ptr noundef %1) #0 comdat align 2 {
  %3 = alloca ptr, align 8
  %4 = alloca ptr, align 8
  %5 = alloca ptr, align 8
  store ptr %0, ptr %3, align 8, !tbaa !29
  store ptr %1, ptr %4, align 8, !tbaa !3
  %6 = load ptr, ptr %3, align 8
  %7 = load ptr, ptr %4, align 8, !tbaa !3
  %8 = icmp ne ptr %7, null
  br i1 %8, label %9, label %11

9:                                                ; preds = %2
  %10 = load ptr, ptr %4, align 8, !tbaa !3
  call void @_ZN13scoped_refptrIN4base8internal13WeakReference4FlagEE6AddRefEPS3_(ptr noundef %10)
  br label %11

11:                                               ; preds = %9, %2
  call void @llvm.lifetime.start.p0(i64 8, ptr %5) #8
  %12 = getelementptr inbounds nuw %class.scoped_refptr.0, ptr %6, i32 0, i32 0
  %13 = load ptr, ptr %12, align 8, !tbaa !31
  store ptr %13, ptr %5, align 8, !tbaa !3
  %14 = load ptr, ptr %4, align 8, !tbaa !3
  %15 = getelementptr inbounds nuw %class.scoped_refptr.0, ptr %6, i32 0, i32 0
  store ptr %14, ptr %15, align 8, !tbaa !31
  %16 = load ptr, ptr %5, align 8, !tbaa !3
  %17 = icmp ne ptr %16, null
  br i1 %17, label %18, label %20

18:                                               ; preds = %11
  %19 = load ptr, ptr %5, align 8, !tbaa !3
  call void @_ZN13scoped_refptrIN4base8internal13WeakReference4FlagEE7ReleaseEPS3_(ptr noundef %19)
  br label %20

20:                                               ; preds = %18, %11
  call void @llvm.lifetime.end.p0(i64 8, ptr %5) #8
  ret ptr %6
}

; Function Attrs: mustprogress nounwind uwtable
define void @_ZN4base8internal13WeakReference4Flag10InvalidateEv(ptr noundef nonnull align 4 dereferenceable(6) %0) #1 align 2 {
  %2 = alloca ptr, align 8
  store ptr %0, ptr %2, align 8, !tbaa !3
  %3 = load ptr, ptr %2, align 8
  %4 = getelementptr inbounds nuw %"class.base::internal::WeakReference::Flag", ptr %3, i32 0, i32 2
  store i8 0, ptr %4, align 1, !tbaa !8
  ret void
}

; Function Attrs: mustprogress nounwind uwtable
define linkonce_odr noundef ptr @_ZNK13scoped_refptrIN4base8internal13WeakReference4FlagEEptEv(ptr noundef nonnull align 8 dereferenceable(8) %0) #1 comdat align 2 {
  %2 = alloca ptr, align 8
  store ptr %0, ptr %2, align 8, !tbaa !29
  %3 = load ptr, ptr %2, align 8
  %4 = getelementptr inbounds nuw %class.scoped_refptr.0, ptr %3, i32 0, i32 0
  %5 = load ptr, ptr %4, align 8, !tbaa !31
  ret ptr %5
}

; Function Attrs: mustprogress nounwind uwtable
define linkonce_odr noundef ptr @_ZNK13scoped_refptrIN4base8internal13WeakReference4FlagEE3getEv(ptr noundef nonnull align 8 dereferenceable(8) %0) #1 comdat align 2 {
  %2 = alloca ptr, align 8
  store ptr %0, ptr %2, align 8, !tbaa !29
  %3 = load ptr, ptr %2, align 8
  %4 = getelementptr inbounds nuw %class.scoped_refptr.0, ptr %3, i32 0, i32 0
  %5 = load ptr, ptr %4, align 8, !tbaa !31
  ret ptr %5
}

; Function Attrs: mustprogress uwtable
define void @_ZN4base8internal18WeakReferenceOwner10InvalidateEv(ptr noundef nonnull align 8 dereferenceable(8) %0) #0 align 2 {
  %2 = alloca ptr, align 8
  store ptr %0, ptr %2, align 8, !tbaa !27
  %3 = load ptr, ptr %2, align 8
  %4 = getelementptr inbounds nuw %"class.base::internal::WeakReferenceOwner", ptr %3, i32 0, i32 0
  %5 = call noundef ptr @_ZNK13scoped_refptrIN4base8internal13WeakReference4FlagEE3getEv(ptr noundef nonnull align 8 dereferenceable(8) %4)
  %6 = icmp ne ptr %5, null
  br i1 %6, label %7, label %12

7:                                                ; preds = %1
  %8 = getelementptr inbounds nuw %"class.base::internal::WeakReferenceOwner", ptr %3, i32 0, i32 0
  %9 = call noundef ptr @_ZNK13scoped_refptrIN4base8internal13WeakReference4FlagEEptEv(ptr noundef nonnull align 8 dereferenceable(8) %8)
  call void @_ZN4base8internal13WeakReference4Flag10InvalidateEv(ptr noundef nonnull align 4 dereferenceable(6) %9)
  %10 = getelementptr inbounds nuw %"class.base::internal::WeakReferenceOwner", ptr %3, i32 0, i32 0
  %11 = call noundef nonnull align 8 dereferenceable(8) ptr @_ZN13scoped_refptrIN4base8internal13WeakReference4FlagEEaSEPS3_(ptr noundef nonnull align 8 dereferenceable(8) %10, ptr noundef null)
  br label %12

12:                                               ; preds = %7, %1
  ret void
}