; Function Attrs: mustprogress uwtable
define void @_ZN4base8internal18WeakReferenceOwner10InvalidateEv(ptr noundef nonnull align 8 captures(none) dereferenceable(8) %0) local_unnamed_addr #0 align 2 {
  %2 = load ptr, ptr %0, align 8, !tbaa !18
  %.not = icmp eq ptr %2, null
  br i1 %.not, label %_ZN13scoped_refptrIN4base8internal13WeakReference4FlagEEaSEPS3_.exit, label %3

3:                                                ; preds = %1
  %4 = getelementptr inbounds nuw i8, ptr %2, i64 5
  store i8 0, ptr %4, align 1, !tbaa !3
  store ptr null, ptr %0, align 8, !tbaa !18
  %5 = tail call noundef zeroext i1 @_ZNK4base6subtle24RefCountedThreadSafeBase7ReleaseEv(ptr noundef nonnull align 4 dereferenceable(4) %2)
  br i1 %5, label %6, label %_ZN13scoped_refptrIN4base8internal13WeakReference4FlagEEaSEPS3_.exit

6:                                                ; preds = %3
  tail call void @_ZN4base8internal13WeakReference4FlagD1Ev(ptr noundef nonnull align 4 dereferenceable(6) %2) #12
  tail call void @_ZdlPv(ptr noundef nonnull align 4 dereferenceable(4) %2) #13
  br label %_ZN13scoped_refptrIN4base8internal13WeakReference4FlagEEaSEPS3_.exit

_ZN13scoped_refptrIN4base8internal13WeakReference4FlagEEaSEPS3_.exit: ; preds = %6, %3, %1
  ret void
}